target datalayout = "e-m:e-p270:32:32-p271:32:32-p272:64:64-i64:64-i128:128-f80:128-n8:16:32:64-S128"
target triple = "x86_64-pc-linux-gnu"

%struct.LOCKTAG = type { i32, i32, i32, i16, i8, i8 }

@MyDatabaseId = external global i32, align 4

; Function Attrs: nounwind uwtable
define dso_local zeroext i1 @ConditionalLockDatabaseObject(i32 noundef %0, i32 noundef %1, i16 noundef zeroext %2, i32 noundef %3) #0 {
  %5 = alloca i1, align 1
  %6 = alloca i32, align 4
  %7 = alloca i32, align 4
  %8 = alloca i16, align 2
  %9 = alloca i32, align 4
  %10 = alloca %struct.LOCKTAG, align 4
  %11 = alloca ptr, align 8
  %12 = alloca i32, align 4
  %13 = alloca i32, align 4
  store i32 %0, ptr %6, align 4
  store i32 %1, ptr %7, align 4
  store i16 %2, ptr %8, align 2
  store i32 %3, ptr %9, align 4
  call void @llvm.lifetime.start.p0(i64 16, ptr %10) #6
  call void @llvm.lifetime.start.p0(i64 8, ptr %11) #6
  call void @llvm.lifetime.start.p0(i64 4, ptr %12) #6
  %14 = load i32, ptr @MyDatabaseId, align 4
  %15 = getelementptr inbounds nuw %struct.LOCKTAG, ptr %10, i32 0, i32 0
  store i32 %14, ptr %15, align 4
  %16 = load i32, ptr %6, align 4
  %17 = getelementptr inbounds nuw %struct.LOCKTAG, ptr %10, i32 0, i32 1
  store i32 %16, ptr %17, align 4
  %18 = load i32, ptr %7, align 4
  %19 = getelementptr inbounds nuw %struct.LOCKTAG, ptr %10, i32 0, i32 2
  store i32 %18, ptr %19, align 4
  %20 = load i16, ptr %8, align 2
  %21 = getelementptr inbounds nuw %struct.LOCKTAG, ptr %10, i32 0, i32 3
  store i16 %20, ptr %21, align 4
  %22 = getelementptr inbounds nuw %struct.LOCKTAG, ptr %10, i32 0, i32 4
  store i8 8, ptr %22, align 2
  %23 = getelementptr inbounds nuw %struct.LOCKTAG, ptr %10, i32 0, i32 5
  store i8 1, ptr %23, align 1
  %24 = load i32, ptr %9, align 4
  %25 = call i32 @LockAcquireExtended(ptr noundef %10, i32 noundef %24, i1 noundef zeroext false, i1 noundef zeroext true, i1 noundef zeroext true, ptr noundef %11)
  store i32 %25, ptr %12, align 4
  %26 = load i32, ptr %12, align 4
  %27 = icmp eq i32 %26, 0
  br i1 %27, label %28, label %29

28:                                               ; preds = %4
  store i1 false, ptr %5, align 1
  store i32 1, ptr %13, align 4
  br label %35

29:                                               ; preds = %4
  %30 = load i32, ptr %12, align 4
  %31 = icmp ne i32 %30, 3
  br i1 %31, label %32, label %34

32:                                               ; preds = %29
  call void @AcceptInvalidationMessages()
  %33 = load ptr, ptr %11, align 8
  call void @MarkLockClear(ptr noundef %33)
  br label %34

34:                                               ; preds = %32, %29
  store i1 true, ptr %5, align 1
  store i32 1, ptr %13, align 4
  br label %35

35:                                               ; preds = %34, %28
  call void @llvm.lifetime.end.p0(i64 4, ptr %12) #6
  call void @llvm.lifetime.end.p0(i64 8, ptr %11) #6
  call void @llvm.lifetime.end.p0(i64 16, ptr %10) #6
  %36 = load i1, ptr %5, align 1
  ret i1 %36
}