; Function Attrs: nounwind uwtable
define dso_local noundef zeroext i1 @ConditionalLockDatabaseObject(i32 noundef %0, i32 noundef %1, i16 noundef zeroext %2, i32 noundef %3) local_unnamed_addr #1 {
  %5 = alloca %struct.LOCKTAG, align 4
  %6 = alloca ptr, align 8
  call void @llvm.lifetime.start.p0(i64 16, ptr nonnull %5) #8
  call void @llvm.lifetime.start.p0(i64 8, ptr nonnull %6) #8
  %7 = load i32, ptr @MyDatabaseId, align 4
  store i32 %7, ptr %5, align 4
  %8 = getelementptr inbounds nuw i8, ptr %5, i64 4
  store i32 %0, ptr %8, align 4
  %9 = getelementptr inbounds nuw i8, ptr %5, i64 8
  store i32 %1, ptr %9, align 4
  %10 = getelementptr inbounds nuw i8, ptr %5, i64 12
  store i16 %2, ptr %10, align 4
  %11 = getelementptr inbounds nuw i8, ptr %5, i64 14
  store i8 8, ptr %11, align 2
  %12 = getelementptr inbounds nuw i8, ptr %5, i64 15
  store i8 1, ptr %12, align 1
  %13 = call i32 @LockAcquireExtended(ptr noundef nonnull %5, i32 noundef %3, i1 noundef zeroext false, i1 noundef zeroext true, i1 noundef zeroext true, ptr noundef nonnull %6) #8
  switch i32 %13, label %14 [
    i32 3, label %16
    i32 0, label %16
  ]

14:                                               ; preds = %4
  call void @AcceptInvalidationMessages() #8
  %15 = load ptr, ptr %6, align 8
  call void @MarkLockClear(ptr noundef %15) #8
  br label %16

16:                                               ; preds = %4, %4, %14
  %17 = icmp ne i32 %13, 0
  call void @llvm.lifetime.end.p0(i64 8, ptr nonnull %6) #8
  call void @llvm.lifetime.end.p0(i64 16, ptr nonnull %5) #8
  ret i1 %17
}